target datalayout = "e-m:e-p270:32:32-p271:32:32-p272:64:64-i64:64-i128:128-f80:128-n8:16:32:64-S128"
target triple = "x86_64-pc-linux-gnu"

@.str.37 = private unnamed_addr constant [6 x i8] c"noisy\00", align 1
@.str.38 = private unnamed_addr constant [6 x i8] c"debug\00", align 1
@.str.39 = private unnamed_addr constant [5 x i8] c"info\00", align 1
@.str.40 = private unnamed_addr constant [8 x i8] c"message\00", align 1
@.str.41 = private unnamed_addr constant [8 x i8] c"warning\00", align 1
@.str.42 = private unnamed_addr constant [9 x i8] c"critical\00", align 1
@.str.43 = private unnamed_addr constant [6 x i8] c"error\00", align 1
@.str.44 = private unnamed_addr constant [5 x i8] c"echo\00", align 1

; Function Attrs: null_pointer_is_valid sspstrong uwtable
define internal i32 @string_to_log_level(ptr noundef %0) #1 {
  %2 = alloca i32, align 4
  %3 = alloca ptr, align 8
  store ptr %0, ptr %3, align 8
  %4 = load ptr, ptr %3, align 8
  %5 = icmp ne ptr %4, null
  br i1 %5, label %7, label %6

6:                                                ; preds = %1
  store i32 0, ptr %2, align 4
  br label %48

7:                                                ; preds = %1
  %8 = load ptr, ptr %3, align 8
  %9 = call i32 @g_ascii_strcasecmp(ptr noundef %8, ptr noundef @.str.37)
  %10 = icmp eq i32 %9, 0
  br i1 %10, label %11, label %12

11:                                               ; preds = %7
  store i32 1, ptr %2, align 4
  br label %48

12:                                               ; preds = %7
  %13 = load ptr, ptr %3, align 8
  %14 = call i32 @g_ascii_strcasecmp(ptr noundef %13, ptr noundef @.str.38)
  %15 = icmp eq i32 %14, 0
  br i1 %15, label %16, label %17

16:                                               ; preds = %12
  store i32 2, ptr %2, align 4
  br label %48

17:                                               ; preds = %12
  %18 = load ptr, ptr %3, align 8
  %19 = call i32 @g_ascii_strcasecmp(ptr noundef %18, ptr noundef @.str.39)
  %20 = icmp eq i32 %19, 0
  br i1 %20, label %21, label %22

21:                                               ; preds = %17
  store i32 3, ptr %2, align 4
  br label %48

22:                                               ; preds = %17
  %23 = load ptr, ptr %3, align 8
  %24 = call i32 @g_ascii_strcasecmp(ptr noundef %23, ptr noundef @.str.40)
  %25 = icmp eq i32 %24, 0
  br i1 %25, label %26, label %27

26:                                               ; preds = %22
  store i32 4, ptr %2, align 4
  br label %48

27:                                               ; preds = %22
  %28 = load ptr, ptr %3, align 8
  %29 = call i32 @g_ascii_strcasecmp(ptr noundef %28, ptr noundef @.str.41)
  %30 = icmp eq i32 %29, 0
  br i1 %30, label %31, label %32

31:                                               ; preds = %27
  store i32 5, ptr %2, align 4
  br label %48

32:                                               ; preds = %27
  %33 = load ptr, ptr %3, align 8
  %34 = call i32 @g_ascii_strcasecmp(ptr noundef %33, ptr noundef @.str.42)
  %35 = icmp eq i32 %34, 0
  br i1 %35, label %36, label %37

36:                                               ; preds = %32
  store i32 6, ptr %2, align 4
  br label %48

37:                                               ; preds = %32
  %38 = load ptr, ptr %3, align 8
  %39 = call i32 @g_ascii_strcasecmp(ptr noundef %38, ptr noundef @.str.43)
  %40 = icmp eq i32 %39, 0
  br i1 %40, label %41, label %42

41:                                               ; preds = %37
  store i32 7, ptr %2, align 4
  br label %48

42:                                               ; preds = %37
  %43 = load ptr, ptr %3, align 8
  %44 = call i32 @g_ascii_strcasecmp(ptr noundef %43, ptr noundef @.str.44)
  %45 = icmp eq i32 %44, 0
  br i1 %45, label %46, label %47

46:                                               ; preds = %42
  store i32 8, ptr %2, align 4
  br label %48

47:                                               ; preds = %42
  store i32 0, ptr %2, align 4
  br label %48

48:                                               ; preds = %47, %46, %41, %36, %31, %26, %21, %16, %11, %6
  %49 = load i32, ptr %2, align 4
  ret i32 %49
}