; Function Attrs: null_pointer_is_valid sspstrong uwtable
define internal fastcc range(i32 0, 9) i32 @string_to_log_level(ptr noundef %0) unnamed_addr #1 {
  %.not = icmp eq ptr %0, null
  br i1 %.not, label %26, label %2

2:                                                ; preds = %1
  %3 = tail call i32 @g_ascii_strcasecmp(ptr noundef nonnull %0, ptr noundef nonnull @.str.37)
  %4 = icmp eq i32 %3, 0
  br i1 %4, label %26, label %5

5:                                                ; preds = %2
  %6 = tail call i32 @g_ascii_strcasecmp(ptr noundef nonnull %0, ptr noundef nonnull @.str.38)
  %7 = icmp eq i32 %6, 0
  br i1 %7, label %26, label %8

8:                                                ; preds = %5
  %9 = tail call i32 @g_ascii_strcasecmp(ptr noundef nonnull %0, ptr noundef nonnull @.str.39)
  %10 = icmp eq i32 %9, 0
  br i1 %10, label %26, label %11

11:                                               ; preds = %8
  %12 = tail call i32 @g_ascii_strcasecmp(ptr noundef nonnull %0, ptr noundef nonnull @.str.40)
  %13 = icmp eq i32 %12, 0
  br i1 %13, label %26, label %14

14:                                               ; preds = %11
  %15 = tail call i32 @g_ascii_strcasecmp(ptr noundef nonnull %0, ptr noundef nonnull @.str.41)
  %16 = icmp eq i32 %15, 0
  br i1 %16, label %26, label %17

17:                                               ; preds = %14
  %18 = tail call i32 @g_ascii_strcasecmp(ptr noundef nonnull %0, ptr noundef nonnull @.str.42)
  %19 = icmp eq i32 %18, 0
  br i1 %19, label %26, label %20

20:                                               ; preds = %17
  %21 = tail call i32 @g_ascii_strcasecmp(ptr noundef nonnull %0, ptr noundef nonnull @.str.43)
  %22 = icmp eq i32 %21, 0
  br i1 %22, label %26, label %23

23:                                               ; preds = %20
  %24 = tail call i32 @g_ascii_strcasecmp(ptr noundef nonnull %0, ptr noundef nonnull @.str.44)
  %25 = icmp eq i32 %24, 0
  %. = select i1 %25, i32 8, i32 0
  br label %26

26:                                               ; preds = %23, %20, %17, %14, %11, %8, %5, %2, %1
  %.0 = phi i32 [ 0, %1 ], [ 1, %2 ], [ 2, %5 ], [ 3, %8 ], [ 4, %11 ], [ 5, %14 ], [ 6, %17 ], [ 7, %20 ], [ %., %23 ]
  ret i32 %.0
}